	.file	"cp.cc"
	.text
	.section	.rodata
	.type	_ZStL19piecewise_construct, @object
	.size	_ZStL19piecewise_construct, 1
_ZStL19piecewise_construct:
	.zero	1
	.local	_ZStL8__ioinit
	.comm	_ZStL8__ioinit,1,1
	.text
	.globl	_Z9correlateiiPKfPf
	.type	_Z9correlateiiPKfPf, @function
_Z9correlateiiPKfPf:
.LFB2089:
	.cfi_startproc
	.cfi_personality 0x3,__gxx_personality_v0
	.cfi_lsda 0x3,.LLSDA2089
	pushq	%rbp
	.cfi_def_cfa_offset 16
	.cfi_offset 6, -16
	movq	%rsp, %rbp
	.cfi_def_cfa_register 6
	pushq	%r15
	pushq	%r14
	pushq	%r13
	pushq	%r12
	pushq	%rbx
	subq	$200, %rsp
	.cfi_offset 15, -24
	.cfi_offset 14, -32
	.cfi_offset 13, -40
	.cfi_offset 12, -48
	.cfi_offset 3, -56
	movl	%edi, -212(%rbp)
	movl	%esi, -216(%rbp)
	movq	%rdx, -224(%rbp)
	movq	%rcx, -232(%rbp)
	movl	$4, -120(%rbp)
	movl	-216(%rbp), %edx
	movl	-120(%rbp), %eax
	addl	%edx, %eax
	subl	$1, %eax
	cltd
	idivl	-120(%rbp)
	movl	%eax, -124(%rbp)
	movl	-124(%rbp), %eax
	imull	-120(%rbp), %eax
	movl	%eax, -128(%rbp)
	leaq	-169(%rbp), %rax
	movq	%rax, %rdi
	call	_ZNSaIdEC1Ev
	pxor	%xmm0, %xmm0
	movsd	%xmm0, -168(%rbp)
	movl	-212(%rbp), %eax
	imull	-128(%rbp), %eax
	movslq	%eax, %rsi
	leaq	-169(%rbp), %rcx
	leaq	-168(%rbp), %rdx
	leaq	-208(%rbp), %rax
	movq	%rax, %rdi
.LEHB0:
	call	_ZNSt6vectorIdSaIdEEC1EmRKdRKS0_
.LEHE0:
	leaq	-169(%rbp), %rax
	movq	%rax, %rdi
	call	_ZNSaIdED1Ev
	movl	$0, -76(%rbp)
.L11:
	movl	-76(%rbp), %eax
	cmpl	-212(%rbp), %eax
	jge	.L2
	pxor	%xmm0, %xmm0
	movsd	%xmm0, -72(%rbp)
	pxor	%xmm0, %xmm0
	movsd	%xmm0, -64(%rbp)
	movl	$0, -56(%rbp)
.L4:
	movl	-56(%rbp), %eax
	cmpl	-216(%rbp), %eax
	jge	.L3
	movl	-76(%rbp), %eax
	imull	-216(%rbp), %eax
	movl	%eax, %edx
	movl	-56(%rbp), %eax
	addl	%edx, %eax
	cltq
	leaq	0(,%rax,4), %rdx
	movq	-224(%rbp), %rax
	addq	%rdx, %rax
	movss	(%rax), %xmm0
	cvtss2sd	%xmm0, %xmm0
	movsd	-72(%rbp), %xmm1
	addsd	%xmm1, %xmm0
	movsd	%xmm0, -72(%rbp)
	addl	$1, -56(%rbp)
	jmp	.L4
.L3:
	cvtsi2sdl	-216(%rbp), %xmm1
	movsd	-72(%rbp), %xmm0
	divsd	%xmm1, %xmm0
	movsd	%xmm0, -136(%rbp)
	movl	$0, -52(%rbp)
.L6:
	movl	-52(%rbp), %eax
	cmpl	-216(%rbp), %eax
	jge	.L5
	movl	-76(%rbp), %eax
	imull	-216(%rbp), %eax
	movl	%eax, %edx
	movl	-52(%rbp), %eax
	addl	%edx, %eax
	cltq
	leaq	0(,%rax,4), %rdx
	movq	-224(%rbp), %rax
	addq	%rdx, %rax
	movss	(%rax), %xmm0
	cvtss2sd	%xmm0, %xmm2
	movsd	%xmm2, -240(%rbp)
	movl	-76(%rbp), %eax
	imull	-128(%rbp), %eax
	movl	%eax, %edx
	movl	-52(%rbp), %eax
	addl	%edx, %eax
	movslq	%eax, %rdx
	leaq	-208(%rbp), %rax
	movq	%rdx, %rsi
	movq	%rax, %rdi
	call	_ZNSt6vectorIdSaIdEEixEm
	movsd	-240(%rbp), %xmm0
	subsd	-136(%rbp), %xmm0
	movsd	%xmm0, (%rax)
	movl	-76(%rbp), %eax
	imull	-128(%rbp), %eax
	movl	%eax, %edx
	movl	-52(%rbp), %eax
	addl	%edx, %eax
	movslq	%eax, %rdx
	leaq	-208(%rbp), %rax
	movq	%rdx, %rsi
	movq	%rax, %rdi
	call	_ZNSt6vectorIdSaIdEEixEm
	movsd	(%rax), %xmm4
	movsd	%xmm4, -240(%rbp)
	movl	-76(%rbp), %eax
	imull	-128(%rbp), %eax
	movl	%eax, %edx
	movl	-52(%rbp), %eax
	addl	%edx, %eax
	movslq	%eax, %rdx
	leaq	-208(%rbp), %rax
	movq	%rdx, %rsi
	movq	%rax, %rdi
	call	_ZNSt6vectorIdSaIdEEixEm
	movsd	(%rax), %xmm0
	mulsd	-240(%rbp), %xmm0
	movsd	-64(%rbp), %xmm1
	addsd	%xmm1, %xmm0
	movsd	%xmm0, -64(%rbp)
	addl	$1, -52(%rbp)
	jmp	.L6
.L5:
	movq	-64(%rbp), %rax
	movq	%rax, %xmm0
	call	sqrt
	movq	%xmm0, %rax
	movq	%rax, -144(%rbp)
	movl	$0, -80(%rbp)
.L8:
	movl	-80(%rbp), %eax
	cmpl	-216(%rbp), %eax
	jge	.L7
	movl	-76(%rbp), %eax
	imull	-128(%rbp), %eax
	movl	%eax, %edx
	movl	-80(%rbp), %eax
	addl	%edx, %eax
	movslq	%eax, %rdx
	leaq	-208(%rbp), %rax
	movq	%rdx, %rsi
	movq	%rax, %rdi
	call	_ZNSt6vectorIdSaIdEEixEm
	movsd	(%rax), %xmm0
	divsd	-144(%rbp), %xmm0
	movsd	%xmm0, (%rax)
	addl	$1, -80(%rbp)
	jmp	.L8
.L7:
	movl	-216(%rbp), %eax
	movl	%eax, -84(%rbp)
.L10:
	movl	-84(%rbp), %eax
	cmpl	-128(%rbp), %eax
	jge	.L9
	movl	-76(%rbp), %eax
	imull	-128(%rbp), %eax
	movl	%eax, %edx
	movl	-84(%rbp), %eax
	addl	%edx, %eax
	movslq	%eax, %rdx
	leaq	-208(%rbp), %rax
	movq	%rdx, %rsi
	movq	%rax, %rdi
	call	_ZNSt6vectorIdSaIdEEixEm
	pxor	%xmm0, %xmm0
	movsd	%xmm0, (%rax)
	addl	$1, -84(%rbp)
	jmp	.L10
.L9:
	addl	$1, -76(%rbp)
	jmp	.L11
.L2:
	movl	$0, -88(%rbp)
.L23:
	movl	-88(%rbp), %eax
	cmpl	-212(%rbp), %eax
	jge	.L12
	movl	$0, -92(%rbp)
.L22:
	movl	-92(%rbp), %eax
	cmpl	-88(%rbp), %eax
	jg	.L13
	movq	%rsp, %rax
	movq	%rax, %rbx
	movl	-120(%rbp), %eax
	cltq
	subq	$1, %rax
	movq	%rax, -152(%rbp)
	movq	%rax, %rdx
	addq	$1, %rdx
	movq	%rdx, %r12
	movl	$0, %r13d
	movq	%rax, %rdx
	addq	$1, %rdx
	movq	%rdx, %r14
	movl	$0, %r15d
	addq	$1, %rax
	leaq	0(,%rax,8), %rdx
	movl	$16, %eax
	subq	$1, %rax
	addq	%rdx, %rax
	movl	$16, %ecx
	movl	$0, %edx
	divq	%rcx
	imulq	$16, %rax, %rax
	subq	%rax, %rsp
	movq	%rsp, %rax
	addq	$7, %rax
	shrq	$3, %rax
	salq	$3, %rax
	movq	%rax, -160(%rbp)
	movl	$0, -96(%rbp)
.L15:
	movl	-96(%rbp), %eax
	cmpl	-120(%rbp), %eax
	jge	.L14
	movq	-160(%rbp), %rax
	movl	-96(%rbp), %edx
	movslq	%edx, %rdx
	pxor	%xmm0, %xmm0
	movsd	%xmm0, (%rax,%rdx,8)
	addl	$1, -96(%rbp)
	jmp	.L15
.L14:
	movl	$0, -100(%rbp)
.L19:
	movl	-100(%rbp), %eax
	cmpl	-124(%rbp), %eax
	jge	.L16
	movl	$0, -104(%rbp)
.L18:
	movl	-104(%rbp), %eax
	cmpl	-120(%rbp), %eax
	jge	.L17
	movl	-88(%rbp), %eax
	imull	-128(%rbp), %eax
	movl	%eax, %edx
	movl	-100(%rbp), %eax
	imull	-120(%rbp), %eax
	addl	%eax, %edx
	movl	-104(%rbp), %eax
	addl	%edx, %eax
	movslq	%eax, %rdx
	leaq	-208(%rbp), %rax
	movq	%rdx, %rsi
	movq	%rax, %rdi
	call	_ZNSt6vectorIdSaIdEEixEm
	movsd	(%rax), %xmm3
	movsd	%xmm3, -240(%rbp)
	movl	-92(%rbp), %eax
	imull	-128(%rbp), %eax
	movl	%eax, %edx
	movl	-100(%rbp), %eax
	imull	-120(%rbp), %eax
	addl	%eax, %edx
	movl	-104(%rbp), %eax
	addl	%edx, %eax
	movslq	%eax, %rdx
	leaq	-208(%rbp), %rax
	movq	%rdx, %rsi
	movq	%rax, %rdi
	call	_ZNSt6vectorIdSaIdEEixEm
	movsd	(%rax), %xmm0
	movsd	-240(%rbp), %xmm1
	mulsd	%xmm0, %xmm1
	movq	-160(%rbp), %rax
	movl	-104(%rbp), %edx
	movslq	%edx, %rdx
	movsd	(%rax,%rdx,8), %xmm0
	addsd	%xmm1, %xmm0
	movq	-160(%rbp), %rax
	movl	-104(%rbp), %edx
	movslq	%edx, %rdx
	movsd	%xmm0, (%rax,%rdx,8)
	addl	$1, -104(%rbp)
	jmp	.L18
.L17:
	addl	$1, -100(%rbp)
	jmp	.L19
.L16:
	pxor	%xmm0, %xmm0
	movsd	%xmm0, -112(%rbp)
	movl	$0, -116(%rbp)
.L21:
	movl	-116(%rbp), %eax
	cmpl	-120(%rbp), %eax
	jge	.L20
	movq	-160(%rbp), %rax
	movl	-116(%rbp), %edx
	movslq	%edx, %rdx
	movsd	(%rax,%rdx,8), %xmm0
	movsd	-112(%rbp), %xmm1
	addsd	%xmm1, %xmm0
	movsd	%xmm0, -112(%rbp)
	addl	$1, -116(%rbp)
	jmp	.L21
.L20:
	movl	-92(%rbp), %eax
	imull	-212(%rbp), %eax
	movl	%eax, %edx
	movl	-88(%rbp), %eax
	addl	%edx, %eax
	cltq
	leaq	0(,%rax,4), %rdx
	movq	-232(%rbp), %rax
	addq	%rdx, %rax
	cvtsd2ss	-112(%rbp), %xmm0
	movss	%xmm0, (%rax)
	movq	%rbx, %rsp
	addl	$1, -92(%rbp)
	jmp	.L22
.L13:
	addl	$1, -88(%rbp)
	jmp	.L23
.L12:
	leaq	-208(%rbp), %rax
	movq	%rax, %rdi
	call	_ZNSt6vectorIdSaIdEED1Ev
	jmp	.L26
.L25:
	movq	%rax, %rbx
	leaq	-169(%rbp), %rax
	movq	%rax, %rdi
	call	_ZNSaIdED1Ev
	movq	%rbx, %rax
	movq	%rax, %rdi
.LEHB1:
	call	_Unwind_Resume
.LEHE1:
.L26:
	leaq	-40(%rbp), %rsp
	popq	%rbx
	popq	%r12
	popq	%r13
	popq	%r14
	popq	%r15
	popq	%rbp
	.cfi_def_cfa 7, 8
	ret
	.cfi_endproc
.LFE2089:
	.globl	__gxx_personality_v0
	.section	.gcc_except_table,"a",@progbits
.LLSDA2089:
	.byte	0xff
	.byte	0xff
	.byte	0x1
	.uleb128 .LLSDACSE2089-.LLSDACSB2089
.LLSDACSB2089:
	.uleb128 .LEHB0-.LFB2089
	.uleb128 .LEHE0-.LEHB0
	.uleb128 .L25-.LFB2089
	.uleb128 0
	.uleb128 .LEHB1-.LFB2089
	.uleb128 .LEHE1-.LEHB1
	.uleb128 0
	.uleb128 0
.LLSDACSE2089:
	.text
	.size	_Z9correlateiiPKfPf, .-_Z9correlateiiPKfPf
	.section	.text._ZNSaIdEC2Ev,"axG",@progbits,_ZNSaIdEC5Ev,comdat
	.align 2
	.weak	_ZNSaIdEC2Ev
	.type	_ZNSaIdEC2Ev, @function
_ZNSaIdEC2Ev:
.LFB2327:
	.cfi_startproc
	pushq	%rbp
	.cfi_def_cfa_offset 16
	.cfi_offset 6, -16
	movq	%rsp, %rbp
	.cfi_def_cfa_register 6
	subq	$16, %rsp
	movq	%rdi, -8(%rbp)
	movq	-8(%rbp), %rax
	movq	%rax, %rdi
	call	_ZN9__gnu_cxx13new_allocatorIdEC2Ev
	nop
	leave
	.cfi_def_cfa 7, 8
	ret
	.cfi_endproc
.LFE2327:
	.size	_ZNSaIdEC2Ev, .-_ZNSaIdEC2Ev
	.weak	_ZNSaIdEC1Ev
	.set	_ZNSaIdEC1Ev,_ZNSaIdEC2Ev
	.section	.text._ZNSaIdED2Ev,"axG",@progbits,_ZNSaIdED5Ev,comdat
	.align 2
	.weak	_ZNSaIdED2Ev
	.type	_ZNSaIdED2Ev, @function
_ZNSaIdED2Ev:
.LFB2330:
	.cfi_startproc
	pushq	%rbp
	.cfi_def_cfa_offset 16
	.cfi_offset 6, -16
	movq	%rsp, %rbp
	.cfi_def_cfa_register 6
	subq	$16, %rsp
	movq	%rdi, -8(%rbp)
	movq	-8(%rbp), %rax
	movq	%rax, %rdi
	call	_ZN9__gnu_cxx13new_allocatorIdED2Ev
	nop
	leave
	.cfi_def_cfa 7, 8
	ret
	.cfi_endproc
.LFE2330:
	.size	_ZNSaIdED2Ev, .-_ZNSaIdED2Ev
	.weak	_ZNSaIdED1Ev
	.set	_ZNSaIdED1Ev,_ZNSaIdED2Ev
	.section	.text._ZNSt6vectorIdSaIdEEC2EmRKdRKS0_,"axG",@progbits,_ZNSt6vectorIdSaIdEEC5EmRKdRKS0_,comdat
	.align 2
	.weak	_ZNSt6vectorIdSaIdEEC2EmRKdRKS0_
	.type	_ZNSt6vectorIdSaIdEEC2EmRKdRKS0_, @function
_ZNSt6vectorIdSaIdEEC2EmRKdRKS0_:
.LFB2333:
	.cfi_startproc
	.cfi_personality 0x3,__gxx_personality_v0
	.cfi_lsda 0x3,.LLSDA2333
	pushq	%rbp
	.cfi_def_cfa_offset 16
	.cfi_offset 6, -16
	movq	%rsp, %rbp
	.cfi_def_cfa_register 6
	pushq	%rbx
	subq	$40, %rsp
	.cfi_offset 3, -24
	movq	%rdi, -24(%rbp)
	movq	%rsi, -32(%rbp)
	movq	%rdx, -40(%rbp)
	movq	%rcx, -48(%rbp)
	movq	-24(%rbp), %rbx
	movq	-48(%rbp), %rdx
	movq	-32(%rbp), %rax
	movq	%rdx, %rsi
	movq	%rax, %rdi
.LEHB2:
	call	_ZNSt6vectorIdSaIdEE17_S_check_init_lenEmRKS0_
	movq	%rax, %rcx
	movq	-48(%rbp), %rax
	movq	%rax, %rdx
	movq	%rcx, %rsi
	movq	%rbx, %rdi
	call	_ZNSt12_Vector_baseIdSaIdEEC2EmRKS0_
.LEHE2:
	movq	-40(%rbp), %rdx
	movq	-32(%rbp), %rcx
	movq	-24(%rbp), %rax
	movq	%rcx, %rsi
	movq	%rax, %rdi
.LEHB3:
	call	_ZNSt6vectorIdSaIdEE18_M_fill_initializeEmRKd
.LEHE3:
	jmp	.L32
.L31:
	movq	%rax, %rbx
	movq	-24(%rbp), %rax
	movq	%rax, %rdi
	call	_ZNSt12_Vector_baseIdSaIdEED2Ev
	movq	%rbx, %rax
	movq	%rax, %rdi
.LEHB4:
	call	_Unwind_Resume
.LEHE4:
.L32:
	addq	$40, %rsp
	popq	%rbx
	popq	%rbp
	.cfi_def_cfa 7, 8
	ret
	.cfi_endproc
.LFE2333:
	.section	.gcc_except_table
.LLSDA2333:
	.byte	0xff
	.byte	0xff
	.byte	0x1
	.uleb128 .LLSDACSE2333-.LLSDACSB2333
.LLSDACSB2333:
	.uleb128 .LEHB2-.LFB2333
	.uleb128 .LEHE2-.LEHB2
	.uleb128 0
	.uleb128 0
	.uleb128 .LEHB3-.LFB2333
	.uleb128 .LEHE3-.LEHB3
	.uleb128 .L31-.LFB2333
	.uleb128 0
	.uleb128 .LEHB4-.LFB2333
	.uleb128 .LEHE4-.LEHB4
	.uleb128 0
	.uleb128 0
.LLSDACSE2333:
	.section	.text._ZNSt6vectorIdSaIdEEC2EmRKdRKS0_,"axG",@progbits,_ZNSt6vectorIdSaIdEEC5EmRKdRKS0_,comdat
	.size	_ZNSt6vectorIdSaIdEEC2EmRKdRKS0_, .-_ZNSt6vectorIdSaIdEEC2EmRKdRKS0_
	.weak	_ZNSt6vectorIdSaIdEEC1EmRKdRKS0_
	.set	_ZNSt6vectorIdSaIdEEC1EmRKdRKS0_,_ZNSt6vectorIdSaIdEEC2EmRKdRKS0_
	.section	.text._ZNSt6vectorIdSaIdEED2Ev,"axG",@progbits,_ZNSt6vectorIdSaIdEED5Ev,comdat
	.align 2
	.weak	_ZNSt6vectorIdSaIdEED2Ev
	.type	_ZNSt6vectorIdSaIdEED2Ev, @function
_ZNSt6vectorIdSaIdEED2Ev:
.LFB2336:
	.cfi_startproc
	.cfi_personality 0x3,__gxx_personality_v0
	.cfi_lsda 0x3,.LLSDA2336
	pushq	%rbp
	.cfi_def_cfa_offset 16
	.cfi_offset 6, -16
	movq	%rsp, %rbp
	.cfi_def_cfa_register 6
	subq	$16, %rsp
	movq	%rdi, -8(%rbp)
	movq	-8(%rbp), %rax
	movq	%rax, %rdi
	call	_ZNSt12_Vector_baseIdSaIdEE19_M_get_Tp_allocatorEv
	movq	%rax, %rdx
	movq	-8(%rbp), %rax
	movq	8(%rax), %rcx
	movq	-8(%rbp), %rax
	movq	(%rax), %rax
	movq	%rcx, %rsi
	movq	%rax, %rdi
	call	_ZSt8_DestroyIPddEvT_S1_RSaIT0_E
	movq	-8(%rbp), %rax
	movq	%rax, %rdi
	call	_ZNSt12_Vector_baseIdSaIdEED2Ev
	nop
	leave
	.cfi_def_cfa 7, 8
	ret
	.cfi_endproc
.LFE2336:
	.section	.gcc_except_table
.LLSDA2336:
	.byte	0xff
	.byte	0xff
	.byte	0x1
	.uleb128 .LLSDACSE2336-.LLSDACSB2336
.LLSDACSB2336:
.LLSDACSE2336:
	.section	.text._ZNSt6vectorIdSaIdEED2Ev,"axG",@progbits,_ZNSt6vectorIdSaIdEED5Ev,comdat
	.size	_ZNSt6vectorIdSaIdEED2Ev, .-_ZNSt6vectorIdSaIdEED2Ev
	.weak	_ZNSt6vectorIdSaIdEED1Ev
	.set	_ZNSt6vectorIdSaIdEED1Ev,_ZNSt6vectorIdSaIdEED2Ev
	.section	.text._ZNSt6vectorIdSaIdEEixEm,"axG",@progbits,_ZNSt6vectorIdSaIdEEixEm,comdat
	.align 2
	.weak	_ZNSt6vectorIdSaIdEEixEm
	.type	_ZNSt6vectorIdSaIdEEixEm, @function
_ZNSt6vectorIdSaIdEEixEm:
.LFB2338:
	.cfi_startproc
	pushq	%rbp
	.cfi_def_cfa_offset 16
	.cfi_offset 6, -16
	movq	%rsp, %rbp
	.cfi_def_cfa_register 6
	movq	%rdi, -8(%rbp)
	movq	%rsi, -16(%rbp)
	movq	-8(%rbp), %rax
	movq	(%rax), %rax
	movq	-16(%rbp), %rdx
	salq	$3, %rdx
	addq	%rdx, %rax
	popq	%rbp
	.cfi_def_cfa 7, 8
	ret
	.cfi_endproc
.LFE2338:
	.size	_ZNSt6vectorIdSaIdEEixEm, .-_ZNSt6vectorIdSaIdEEixEm
	.section	.text._ZN9__gnu_cxx13new_allocatorIdEC2Ev,"axG",@progbits,_ZN9__gnu_cxx13new_allocatorIdEC5Ev,comdat
	.align 2
	.weak	_ZN9__gnu_cxx13new_allocatorIdEC2Ev
	.type	_ZN9__gnu_cxx13new_allocatorIdEC2Ev, @function
_ZN9__gnu_cxx13new_allocatorIdEC2Ev:
.LFB2448:
	.cfi_startproc
	pushq	%rbp
	.cfi_def_cfa_offset 16
	.cfi_offset 6, -16
	movq	%rsp, %rbp
	.cfi_def_cfa_register 6
	movq	%rdi, -8(%rbp)
	nop
	popq	%rbp
	.cfi_def_cfa 7, 8
	ret
	.cfi_endproc
.LFE2448:
	.size	_ZN9__gnu_cxx13new_allocatorIdEC2Ev, .-_ZN9__gnu_cxx13new_allocatorIdEC2Ev
	.weak	_ZN9__gnu_cxx13new_allocatorIdEC1Ev
	.set	_ZN9__gnu_cxx13new_allocatorIdEC1Ev,_ZN9__gnu_cxx13new_allocatorIdEC2Ev
	.section	.text._ZN9__gnu_cxx13new_allocatorIdED2Ev,"axG",@progbits,_ZN9__gnu_cxx13new_allocatorIdED5Ev,comdat
	.align 2
	.weak	_ZN9__gnu_cxx13new_allocatorIdED2Ev
	.type	_ZN9__gnu_cxx13new_allocatorIdED2Ev, @function
_ZN9__gnu_cxx13new_allocatorIdED2Ev:
.LFB2451:
	.cfi_startproc
	pushq	%rbp
	.cfi_def_cfa_offset 16
	.cfi_offset 6, -16
	movq	%rsp, %rbp
	.cfi_def_cfa_register 6
	movq	%rdi, -8(%rbp)
	nop
	popq	%rbp
	.cfi_def_cfa 7, 8
	ret
	.cfi_endproc
.LFE2451:
	.size	_ZN9__gnu_cxx13new_allocatorIdED2Ev, .-_ZN9__gnu_cxx13new_allocatorIdED2Ev
	.weak	_ZN9__gnu_cxx13new_allocatorIdED1Ev
	.set	_ZN9__gnu_cxx13new_allocatorIdED1Ev,_ZN9__gnu_cxx13new_allocatorIdED2Ev
	.section	.rodata
	.align 8
.LC1:
	.string	"cannot create std::vector larger than max_size()"
	.section	.text._ZNSt6vectorIdSaIdEE17_S_check_init_lenEmRKS0_,"axG",@progbits,_ZNSt6vectorIdSaIdEE17_S_check_init_lenEmRKS0_,comdat
	.weak	_ZNSt6vectorIdSaIdEE17_S_check_init_lenEmRKS0_
	.type	_ZNSt6vectorIdSaIdEE17_S_check_init_lenEmRKS0_, @function
_ZNSt6vectorIdSaIdEE17_S_check_init_lenEmRKS0_:
.LFB2453:
	.cfi_startproc
	pushq	%rbp
	.cfi_def_cfa_offset 16
	.cfi_offset 6, -16
	movq	%rsp, %rbp
	.cfi_def_cfa_register 6
	pushq	%rbx
	subq	$40, %rsp
	.cfi_offset 3, -24
	movq	%rdi, -40(%rbp)
	movq	%rsi, -48(%rbp)
	movq	-48(%rbp), %rdx
	leaq	-17(%rbp), %rax
	movq	%rdx, %rsi
	movq	%rax, %rdi
	call	_ZNSaIdEC1ERKS_
	leaq	-17(%rbp), %rax
	movq	%rax, %rdi
	call	_ZNSt6vectorIdSaIdEE11_S_max_sizeERKS0_
	cmpq	%rax, -40(%rbp)
	seta	%bl
	leaq	-17(%rbp), %rax
	movq	%rax, %rdi
	call	_ZNSaIdED1Ev
	testb	%bl, %bl
	je	.L39
	movl	$.LC1, %edi
	call	_ZSt20__throw_length_errorPKc
.L39:
	movq	-40(%rbp), %rax
	addq	$40, %rsp
	popq	%rbx
	popq	%rbp
	.cfi_def_cfa 7, 8
	ret
	.cfi_endproc
.LFE2453:
	.size	_ZNSt6vectorIdSaIdEE17_S_check_init_lenEmRKS0_, .-_ZNSt6vectorIdSaIdEE17_S_check_init_lenEmRKS0_
	.section	.text._ZNSt12_Vector_baseIdSaIdEE12_Vector_implD2Ev,"axG",@progbits,_ZNSt12_Vector_baseIdSaIdEE12_Vector_implD5Ev,comdat
	.align 2
	.weak	_ZNSt12_Vector_baseIdSaIdEE12_Vector_implD2Ev
	.type	_ZNSt12_Vector_baseIdSaIdEE12_Vector_implD2Ev, @function
_ZNSt12_Vector_baseIdSaIdEE12_Vector_implD2Ev:
.LFB2456:
	.cfi_startproc
	pushq	%rbp
	.cfi_def_cfa_offset 16
	.cfi_offset 6, -16
	movq	%rsp, %rbp
	.cfi_def_cfa_register 6
	subq	$16, %rsp
	movq	%rdi, -8(%rbp)
	movq	-8(%rbp), %rax
	movq	%rax, %rdi
	call	_ZNSaIdED2Ev
	nop
	leave
	.cfi_def_cfa 7, 8
	ret
	.cfi_endproc
.LFE2456:
	.size	_ZNSt12_Vector_baseIdSaIdEE12_Vector_implD2Ev, .-_ZNSt12_Vector_baseIdSaIdEE12_Vector_implD2Ev
	.weak	_ZNSt12_Vector_baseIdSaIdEE12_Vector_implD1Ev
	.set	_ZNSt12_Vector_baseIdSaIdEE12_Vector_implD1Ev,_ZNSt12_Vector_baseIdSaIdEE12_Vector_implD2Ev
	.section	.text._ZNSt12_Vector_baseIdSaIdEEC2EmRKS0_,"axG",@progbits,_ZNSt12_Vector_baseIdSaIdEEC5EmRKS0_,comdat
	.align 2
	.weak	_ZNSt12_Vector_baseIdSaIdEEC2EmRKS0_
	.type	_ZNSt12_Vector_baseIdSaIdEEC2EmRKS0_, @function
_ZNSt12_Vector_baseIdSaIdEEC2EmRKS0_:
.LFB2458:
	.cfi_startproc
	.cfi_personality 0x3,__gxx_personality_v0
	.cfi_lsda 0x3,.LLSDA2458
	pushq	%rbp
	.cfi_def_cfa_offset 16
	.cfi_offset 6, -16
	movq	%rsp, %rbp
	.cfi_def_cfa_register 6
	pushq	%rbx
	subq	$40, %rsp
	.cfi_offset 3, -24
	movq	%rdi, -24(%rbp)
	movq	%rsi, -32(%rbp)
	movq	%rdx, -40(%rbp)
	movq	-24(%rbp), %rax
	movq	-40(%rbp), %rdx
	movq	%rdx, %rsi
	movq	%rax, %rdi
	call	_ZNSt12_Vector_baseIdSaIdEE12_Vector_implC1ERKS0_
	movq	-32(%rbp), %rdx
	movq	-24(%rbp), %rax
	movq	%rdx, %rsi
	movq	%rax, %rdi
.LEHB5:
	call	_ZNSt12_Vector_baseIdSaIdEE17_M_create_storageEm
.LEHE5:
	jmp	.L45
.L44:
	movq	%rax, %rbx
	movq	-24(%rbp), %rax
	movq	%rax, %rdi
	call	_ZNSt12_Vector_baseIdSaIdEE12_Vector_implD1Ev
	movq	%rbx, %rax
	movq	%rax, %rdi
.LEHB6:
	call	_Unwind_Resume
.LEHE6:
.L45:
	addq	$40, %rsp
	popq	%rbx
	popq	%rbp
	.cfi_def_cfa 7, 8
	ret
	.cfi_endproc
.LFE2458:
	.section	.gcc_except_table
.LLSDA2458:
	.byte	0xff
	.byte	0xff
	.byte	0x1
	.uleb128 .LLSDACSE2458-.LLSDACSB2458
.LLSDACSB2458:
	.uleb128 .LEHB5-.LFB2458
	.uleb128 .LEHE5-.LEHB5
	.uleb128 .L44-.LFB2458
	.uleb128 0
	.uleb128 .LEHB6-.LFB2458
	.uleb128 .LEHE6-.LEHB6
	.uleb128 0
	.uleb128 0
.LLSDACSE2458:
	.section	.text._ZNSt12_Vector_baseIdSaIdEEC2EmRKS0_,"axG",@progbits,_ZNSt12_Vector_baseIdSaIdEEC5EmRKS0_,comdat
	.size	_ZNSt12_Vector_baseIdSaIdEEC2EmRKS0_, .-_ZNSt12_Vector_baseIdSaIdEEC2EmRKS0_
	.weak	_ZNSt12_Vector_baseIdSaIdEEC1EmRKS0_
	.set	_ZNSt12_Vector_baseIdSaIdEEC1EmRKS0_,_ZNSt12_Vector_baseIdSaIdEEC2EmRKS0_
	.section	.text._ZNSt12_Vector_baseIdSaIdEED2Ev,"axG",@progbits,_ZNSt12_Vector_baseIdSaIdEED5Ev,comdat
	.align 2
	.weak	_ZNSt12_Vector_baseIdSaIdEED2Ev
	.type	_ZNSt12_Vector_baseIdSaIdEED2Ev, @function
_ZNSt12_Vector_baseIdSaIdEED2Ev:
.LFB2461:
	.cfi_startproc
	.cfi_personality 0x3,__gxx_personality_v0
	.cfi_lsda 0x3,.LLSDA2461
	pushq	%rbp
	.cfi_def_cfa_offset 16
	.cfi_offset 6, -16
	movq	%rsp, %rbp
	.cfi_def_cfa_register 6
	subq	$16, %rsp
	movq	%rdi, -8(%rbp)
	movq	-8(%rbp), %rax
	movq	16(%rax), %rdx
	movq	-8(%rbp), %rax
	movq	(%rax), %rax
	subq	%rax, %rdx
	movq	%rdx, %rax
	sarq	$3, %rax
	movq	%rax, %rdx
	movq	-8(%rbp), %rax
	movq	(%rax), %rcx
	movq	-8(%rbp), %rax
	movq	%rcx, %rsi
	movq	%rax, %rdi
	call	_ZNSt12_Vector_baseIdSaIdEE13_M_deallocateEPdm
	movq	-8(%rbp), %rax
	movq	%rax, %rdi
	call	_ZNSt12_Vector_baseIdSaIdEE12_Vector_implD1Ev
	nop
	leave
	.cfi_def_cfa 7, 8
	ret
	.cfi_endproc
.LFE2461:
	.section	.gcc_except_table
.LLSDA2461:
	.byte	0xff
	.byte	0xff
	.byte	0x1
	.uleb128 .LLSDACSE2461-.LLSDACSB2461
.LLSDACSB2461:
.LLSDACSE2461:
	.section	.text._ZNSt12_Vector_baseIdSaIdEED2Ev,"axG",@progbits,_ZNSt12_Vector_baseIdSaIdEED5Ev,comdat
	.size	_ZNSt12_Vector_baseIdSaIdEED2Ev, .-_ZNSt12_Vector_baseIdSaIdEED2Ev
	.weak	_ZNSt12_Vector_baseIdSaIdEED1Ev
	.set	_ZNSt12_Vector_baseIdSaIdEED1Ev,_ZNSt12_Vector_baseIdSaIdEED2Ev
	.section	.text._ZNSt6vectorIdSaIdEE18_M_fill_initializeEmRKd,"axG",@progbits,_ZNSt6vectorIdSaIdEE18_M_fill_initializeEmRKd,comdat
	.align 2
	.weak	_ZNSt6vectorIdSaIdEE18_M_fill_initializeEmRKd
	.type	_ZNSt6vectorIdSaIdEE18_M_fill_initializeEmRKd, @function
_ZNSt6vectorIdSaIdEE18_M_fill_initializeEmRKd:
.LFB2463:
	.cfi_startproc
	pushq	%rbp
	.cfi_def_cfa_offset 16
	.cfi_offset 6, -16
	movq	%rsp, %rbp
	.cfi_def_cfa_register 6
	subq	$32, %rsp
	movq	%rdi, -8(%rbp)
	movq	%rsi, -16(%rbp)
	movq	%rdx, -24(%rbp)
	movq	-8(%rbp), %rax
	movq	%rax, %rdi
	call	_ZNSt12_Vector_baseIdSaIdEE19_M_get_Tp_allocatorEv
	movq	%rax, %rcx
	movq	-8(%rbp), %rax
	movq	(%rax), %rax
	movq	-24(%rbp), %rdx
	movq	-16(%rbp), %rsi
	movq	%rax, %rdi
	call	_ZSt24__uninitialized_fill_n_aIPdmddET_S1_T0_RKT1_RSaIT2_E
	movq	-8(%rbp), %rdx
	movq	%rax, 8(%rdx)
	nop
	leave
	.cfi_def_cfa 7, 8
	ret
	.cfi_endproc
.LFE2463:
	.size	_ZNSt6vectorIdSaIdEE18_M_fill_initializeEmRKd, .-_ZNSt6vectorIdSaIdEE18_M_fill_initializeEmRKd
	.section	.text._ZNSt12_Vector_baseIdSaIdEE19_M_get_Tp_allocatorEv,"axG",@progbits,_ZNSt12_Vector_baseIdSaIdEE19_M_get_Tp_allocatorEv,comdat
	.align 2
	.weak	_ZNSt12_Vector_baseIdSaIdEE19_M_get_Tp_allocatorEv
	.type	_ZNSt12_Vector_baseIdSaIdEE19_M_get_Tp_allocatorEv, @function
_ZNSt12_Vector_baseIdSaIdEE19_M_get_Tp_allocatorEv:
.LFB2464:
	.cfi_startproc
	pushq	%rbp
	.cfi_def_cfa_offset 16
	.cfi_offset 6, -16
	movq	%rsp, %rbp
	.cfi_def_cfa_register 6
	movq	%rdi, -8(%rbp)
	movq	-8(%rbp), %rax
	popq	%rbp
	.cfi_def_cfa 7, 8
	ret
	.cfi_endproc
.LFE2464:
	.size	_ZNSt12_Vector_baseIdSaIdEE19_M_get_Tp_allocatorEv, .-_ZNSt12_Vector_baseIdSaIdEE19_M_get_Tp_allocatorEv
	.section	.text._ZSt8_DestroyIPddEvT_S1_RSaIT0_E,"axG",@progbits,_ZSt8_DestroyIPddEvT_S1_RSaIT0_E,comdat
	.weak	_ZSt8_DestroyIPddEvT_S1_RSaIT0_E
	.type	_ZSt8_DestroyIPddEvT_S1_RSaIT0_E, @function
_ZSt8_DestroyIPddEvT_S1_RSaIT0_E:
.LFB2465:
	.cfi_startproc
	pushq	%rbp
	.cfi_def_cfa_offset 16
	.cfi_offset 6, -16
	movq	%rsp, %rbp
	.cfi_def_cfa_register 6
	subq	$32, %rsp
	movq	%rdi, -8(%rbp)
	movq	%rsi, -16(%rbp)
	movq	%rdx, -24(%rbp)
	movq	-16(%rbp), %rdx
	movq	-8(%rbp), %rax
	movq	%rdx, %rsi
	movq	%rax, %rdi
	call	_ZSt8_DestroyIPdEvT_S1_
	nop
	leave
	.cfi_def_cfa 7, 8
	ret
	.cfi_endproc
.LFE2465:
	.size	_ZSt8_DestroyIPddEvT_S1_RSaIT0_E, .-_ZSt8_DestroyIPddEvT_S1_RSaIT0_E
	.section	.text._ZNSt6vectorIdSaIdEE11_S_max_sizeERKS0_,"axG",@progbits,_ZNSt6vectorIdSaIdEE11_S_max_sizeERKS0_,comdat
	.weak	_ZNSt6vectorIdSaIdEE11_S_max_sizeERKS0_
	.type	_ZNSt6vectorIdSaIdEE11_S_max_sizeERKS0_, @function
_ZNSt6vectorIdSaIdEE11_S_max_sizeERKS0_:
.LFB2500:
	.cfi_startproc
	pushq	%rbp
	.cfi_def_cfa_offset 16
	.cfi_offset 6, -16
	movq	%rsp, %rbp
	.cfi_def_cfa_register 6
	subq	$32, %rsp
	movq	%rdi, -24(%rbp)
	movabsq	$1152921504606846975, %rax
	movq	%rax, -8(%rbp)
	movq	-24(%rbp), %rax
	movq	%rax, %rdi
	call	_ZNSt16allocator_traitsISaIdEE8max_sizeERKS0_
	movq	%rax, -16(%rbp)
	leaq	-16(%rbp), %rdx
	leaq	-8(%rbp), %rax
	movq	%rdx, %rsi
	movq	%rax, %rdi
	call	_ZSt3minImERKT_S2_S2_
	movq	(%rax), %rax
	leave
	.cfi_def_cfa 7, 8
	ret
	.cfi_endproc
.LFE2500:
	.size	_ZNSt6vectorIdSaIdEE11_S_max_sizeERKS0_, .-_ZNSt6vectorIdSaIdEE11_S_max_sizeERKS0_
	.section	.text._ZNSaIdEC2ERKS_,"axG",@progbits,_ZNSaIdEC5ERKS_,comdat
	.align 2
	.weak	_ZNSaIdEC2ERKS_
	.type	_ZNSaIdEC2ERKS_, @function
_ZNSaIdEC2ERKS_:
.LFB2502:
	.cfi_startproc
	pushq	%rbp
	.cfi_def_cfa_offset 16
	.cfi_offset 6, -16
	movq	%rsp, %rbp
	.cfi_def_cfa_register 6
	subq	$16, %rsp
	movq	%rdi, -8(%rbp)
	movq	%rsi, -16(%rbp)
	movq	-16(%rbp), %rdx
	movq	-8(%rbp), %rax
	movq	%rdx, %rsi
	movq	%rax, %rdi
	call	_ZN9__gnu_cxx13new_allocatorIdEC2ERKS1_
	nop
	leave
	.cfi_def_cfa 7, 8
	ret
	.cfi_endproc
.LFE2502:
	.size	_ZNSaIdEC2ERKS_, .-_ZNSaIdEC2ERKS_
	.weak	_ZNSaIdEC1ERKS_
	.set	_ZNSaIdEC1ERKS_,_ZNSaIdEC2ERKS_
	.section	.text._ZNSt12_Vector_baseIdSaIdEE12_Vector_implC2ERKS0_,"axG",@progbits,_ZNSt12_Vector_baseIdSaIdEE12_Vector_implC5ERKS0_,comdat
	.align 2
	.weak	_ZNSt12_Vector_baseIdSaIdEE12_Vector_implC2ERKS0_
	.type	_ZNSt12_Vector_baseIdSaIdEE12_Vector_implC2ERKS0_, @function
_ZNSt12_Vector_baseIdSaIdEE12_Vector_implC2ERKS0_:
.LFB2505:
	.cfi_startproc
	pushq	%rbp
	.cfi_def_cfa_offset 16
	.cfi_offset 6, -16
	movq	%rsp, %rbp
	.cfi_def_cfa_register 6
	subq	$16, %rsp
	movq	%rdi, -8(%rbp)
	movq	%rsi, -16(%rbp)
	movq	-16(%rbp), %rdx
	movq	-8(%rbp), %rax
	movq	%rdx, %rsi
	movq	%rax, %rdi
	call	_ZNSaIdEC2ERKS_
	movq	-8(%rbp), %rax
	movq	%rax, %rdi
	call	_ZNSt12_Vector_baseIdSaIdEE17_Vector_impl_dataC2Ev
	nop
	leave
	.cfi_def_cfa 7, 8
	ret
	.cfi_endproc
.LFE2505:
	.size	_ZNSt12_Vector_baseIdSaIdEE12_Vector_implC2ERKS0_, .-_ZNSt12_Vector_baseIdSaIdEE12_Vector_implC2ERKS0_
	.weak	_ZNSt12_Vector_baseIdSaIdEE12_Vector_implC1ERKS0_
	.set	_ZNSt12_Vector_baseIdSaIdEE12_Vector_implC1ERKS0_,_ZNSt12_Vector_baseIdSaIdEE12_Vector_implC2ERKS0_
	.section	.text._ZNSt12_Vector_baseIdSaIdEE17_M_create_storageEm,"axG",@progbits,_ZNSt12_Vector_baseIdSaIdEE17_M_create_storageEm,comdat
	.align 2
	.weak	_ZNSt12_Vector_baseIdSaIdEE17_M_create_storageEm
	.type	_ZNSt12_Vector_baseIdSaIdEE17_M_create_storageEm, @function
_ZNSt12_Vector_baseIdSaIdEE17_M_create_storageEm:
.LFB2507:
	.cfi_startproc
	pushq	%rbp
	.cfi_def_cfa_offset 16
	.cfi_offset 6, -16
	movq	%rsp, %rbp
	.cfi_def_cfa_register 6
	subq	$16, %rsp
	movq	%rdi, -8(%rbp)
	movq	%rsi, -16(%rbp)
	movq	-16(%rbp), %rdx
	movq	-8(%rbp), %rax
	movq	%rdx, %rsi
	movq	%rax, %rdi
	call	_ZNSt12_Vector_baseIdSaIdEE11_M_allocateEm
	movq	-8(%rbp), %rdx
	movq	%rax, (%rdx)
	movq	-8(%rbp), %rax
	movq	(%rax), %rdx
	movq	-8(%rbp), %rax
	movq	%rdx, 8(%rax)
	movq	-8(%rbp), %rax
	movq	(%rax), %rax
	movq	-16(%rbp), %rdx
	salq	$3, %rdx
	addq	%rax, %rdx
	movq	-8(%rbp), %rax
	movq	%rdx, 16(%rax)
	nop
	leave
	.cfi_def_cfa 7, 8
	ret
	.cfi_endproc
.LFE2507:
	.size	_ZNSt12_Vector_baseIdSaIdEE17_M_create_storageEm, .-_ZNSt12_Vector_baseIdSaIdEE17_M_create_storageEm
	.section	.text._ZNSt12_Vector_baseIdSaIdEE13_M_deallocateEPdm,"axG",@progbits,_ZNSt12_Vector_baseIdSaIdEE13_M_deallocateEPdm,comdat
	.align 2
	.weak	_ZNSt12_Vector_baseIdSaIdEE13_M_deallocateEPdm
	.type	_ZNSt12_Vector_baseIdSaIdEE13_M_deallocateEPdm, @function
_ZNSt12_Vector_baseIdSaIdEE13_M_deallocateEPdm:
.LFB2508:
	.cfi_startproc
	pushq	%rbp
	.cfi_def_cfa_offset 16
	.cfi_offset 6, -16
	movq	%rsp, %rbp
	.cfi_def_cfa_register 6
	subq	$32, %rsp
	movq	%rdi, -8(%rbp)
	movq	%rsi, -16(%rbp)
	movq	%rdx, -24(%rbp)
	cmpq	$0, -16(%rbp)
	je	.L58
	movq	-8(%rbp), %rax
	movq	-24(%rbp), %rdx
	movq	-16(%rbp), %rcx
	movq	%rcx, %rsi
	movq	%rax, %rdi
	call	_ZNSt16allocator_traitsISaIdEE10deallocateERS0_Pdm
.L58:
	nop
	leave
	.cfi_def_cfa 7, 8
	ret
	.cfi_endproc
.LFE2508:
	.size	_ZNSt12_Vector_baseIdSaIdEE13_M_deallocateEPdm, .-_ZNSt12_Vector_baseIdSaIdEE13_M_deallocateEPdm
	.section	.text._ZSt24__uninitialized_fill_n_aIPdmddET_S1_T0_RKT1_RSaIT2_E,"axG",@progbits,_ZSt24__uninitialized_fill_n_aIPdmddET_S1_T0_RKT1_RSaIT2_E,comdat
	.weak	_ZSt24__uninitialized_fill_n_aIPdmddET_S1_T0_RKT1_RSaIT2_E
	.type	_ZSt24__uninitialized_fill_n_aIPdmddET_S1_T0_RKT1_RSaIT2_E, @function
_ZSt24__uninitialized_fill_n_aIPdmddET_S1_T0_RKT1_RSaIT2_E:
.LFB2509:
	.cfi_startproc
	pushq	%rbp
	.cfi_def_cfa_offset 16
	.cfi_offset 6, -16
	movq	%rsp, %rbp
	.cfi_def_cfa_register 6
	subq	$32, %rsp
	movq	%rdi, -8(%rbp)
	movq	%rsi, -16(%rbp)
	movq	%rdx, -24(%rbp)
	movq	%rcx, -32(%rbp)
	movq	-24(%rbp), %rdx
	movq	-16(%rbp), %rcx
	movq	-8(%rbp), %rax
	movq	%rcx, %rsi
	movq	%rax, %rdi
	call	_ZSt20uninitialized_fill_nIPdmdET_S1_T0_RKT1_
	leave
	.cfi_def_cfa 7, 8
	ret
	.cfi_endproc
.LFE2509:
	.size	_ZSt24__uninitialized_fill_n_aIPdmddET_S1_T0_RKT1_RSaIT2_E, .-_ZSt24__uninitialized_fill_n_aIPdmddET_S1_T0_RKT1_RSaIT2_E
	.section	.text._ZSt8_DestroyIPdEvT_S1_,"axG",@progbits,_ZSt8_DestroyIPdEvT_S1_,comdat
	.weak	_ZSt8_DestroyIPdEvT_S1_
	.type	_ZSt8_DestroyIPdEvT_S1_, @function
_ZSt8_DestroyIPdEvT_S1_:
.LFB2510:
	.cfi_startproc
	pushq	%rbp
	.cfi_def_cfa_offset 16
	.cfi_offset 6, -16
	movq	%rsp, %rbp
	.cfi_def_cfa_register 6
	subq	$16, %rsp
	movq	%rdi, -8(%rbp)
	movq	%rsi, -16(%rbp)
	movq	-16(%rbp), %rdx
	movq	-8(%rbp), %rax
	movq	%rdx, %rsi
	movq	%rax, %rdi
	call	_ZNSt12_Destroy_auxILb1EE9__destroyIPdEEvT_S3_
	nop
	leave
	.cfi_def_cfa 7, 8
	ret
	.cfi_endproc
.LFE2510:
	.size	_ZSt8_DestroyIPdEvT_S1_, .-_ZSt8_DestroyIPdEvT_S1_
	.section	.text._ZNSt16allocator_traitsISaIdEE8max_sizeERKS0_,"axG",@progbits,_ZNSt16allocator_traitsISaIdEE8max_sizeERKS0_,comdat
	.weak	_ZNSt16allocator_traitsISaIdEE8max_sizeERKS0_
	.type	_ZNSt16allocator_traitsISaIdEE8max_sizeERKS0_, @function
_ZNSt16allocator_traitsISaIdEE8max_sizeERKS0_:
.LFB2545:
	.cfi_startproc
	pushq	%rbp
	.cfi_def_cfa_offset 16
	.cfi_offset 6, -16
	movq	%rsp, %rbp
	.cfi_def_cfa_register 6
	subq	$16, %rsp
	movq	%rdi, -8(%rbp)
	movq	-8(%rbp), %rax
	movq	%rax, %rdi
	call	_ZNK9__gnu_cxx13new_allocatorIdE8max_sizeEv
	leave
	.cfi_def_cfa 7, 8
	ret
	.cfi_endproc
.LFE2545:
	.size	_ZNSt16allocator_traitsISaIdEE8max_sizeERKS0_, .-_ZNSt16allocator_traitsISaIdEE8max_sizeERKS0_
	.section	.text._ZSt3minImERKT_S2_S2_,"axG",@progbits,_ZSt3minImERKT_S2_S2_,comdat
	.weak	_ZSt3minImERKT_S2_S2_
	.type	_ZSt3minImERKT_S2_S2_, @function
_ZSt3minImERKT_S2_S2_:
.LFB2546:
	.cfi_startproc
	pushq	%rbp
	.cfi_def_cfa_offset 16
	.cfi_offset 6, -16
	movq	%rsp, %rbp
	.cfi_def_cfa_register 6
	movq	%rdi, -8(%rbp)
	movq	%rsi, -16(%rbp)
	movq	-16(%rbp), %rax
	movq	(%rax), %rdx
	movq	-8(%rbp), %rax
	movq	(%rax), %rax
	cmpq	%rax, %rdx
	jnb	.L65
	movq	-16(%rbp), %rax
	jmp	.L66
.L65:
	movq	-8(%rbp), %rax
.L66:
	popq	%rbp
	.cfi_def_cfa 7, 8
	ret
	.cfi_endproc
.LFE2546:
	.size	_ZSt3minImERKT_S2_S2_, .-_ZSt3minImERKT_S2_S2_
	.section	.text._ZN9__gnu_cxx13new_allocatorIdEC2ERKS1_,"axG",@progbits,_ZN9__gnu_cxx13new_allocatorIdEC5ERKS1_,comdat
	.align 2
	.weak	_ZN9__gnu_cxx13new_allocatorIdEC2ERKS1_
	.type	_ZN9__gnu_cxx13new_allocatorIdEC2ERKS1_, @function
_ZN9__gnu_cxx13new_allocatorIdEC2ERKS1_:
.LFB2548:
	.cfi_startproc
	pushq	%rbp
	.cfi_def_cfa_offset 16
	.cfi_offset 6, -16
	movq	%rsp, %rbp
	.cfi_def_cfa_register 6
	movq	%rdi, -8(%rbp)
	movq	%rsi, -16(%rbp)
	nop
	popq	%rbp
	.cfi_def_cfa 7, 8
	ret
	.cfi_endproc
.LFE2548:
	.size	_ZN9__gnu_cxx13new_allocatorIdEC2ERKS1_, .-_ZN9__gnu_cxx13new_allocatorIdEC2ERKS1_
	.weak	_ZN9__gnu_cxx13new_allocatorIdEC1ERKS1_
	.set	_ZN9__gnu_cxx13new_allocatorIdEC1ERKS1_,_ZN9__gnu_cxx13new_allocatorIdEC2ERKS1_
	.section	.text._ZNSt12_Vector_baseIdSaIdEE17_Vector_impl_dataC2Ev,"axG",@progbits,_ZNSt12_Vector_baseIdSaIdEE17_Vector_impl_dataC5Ev,comdat
	.align 2
	.weak	_ZNSt12_Vector_baseIdSaIdEE17_Vector_impl_dataC2Ev
	.type	_ZNSt12_Vector_baseIdSaIdEE17_Vector_impl_dataC2Ev, @function
_ZNSt12_Vector_baseIdSaIdEE17_Vector_impl_dataC2Ev:
.LFB2551:
	.cfi_startproc
	pushq	%rbp
	.cfi_def_cfa_offset 16
	.cfi_offset 6, -16
	movq	%rsp, %rbp
	.cfi_def_cfa_register 6
	movq	%rdi, -8(%rbp)
	movq	-8(%rbp), %rax
	movq	$0, (%rax)
	movq	-8(%rbp), %rax
	movq	$0, 8(%rax)
	movq	-8(%rbp), %rax
	movq	$0, 16(%rax)
	nop
	popq	%rbp
	.cfi_def_cfa 7, 8
	ret
	.cfi_endproc
.LFE2551:
	.size	_ZNSt12_Vector_baseIdSaIdEE17_Vector_impl_dataC2Ev, .-_ZNSt12_Vector_baseIdSaIdEE17_Vector_impl_dataC2Ev
	.weak	_ZNSt12_Vector_baseIdSaIdEE17_Vector_impl_dataC1Ev
	.set	_ZNSt12_Vector_baseIdSaIdEE17_Vector_impl_dataC1Ev,_ZNSt12_Vector_baseIdSaIdEE17_Vector_impl_dataC2Ev
	.section	.text._ZNSt12_Vector_baseIdSaIdEE11_M_allocateEm,"axG",@progbits,_ZNSt12_Vector_baseIdSaIdEE11_M_allocateEm,comdat
	.align 2
	.weak	_ZNSt12_Vector_baseIdSaIdEE11_M_allocateEm
	.type	_ZNSt12_Vector_baseIdSaIdEE11_M_allocateEm, @function
_ZNSt12_Vector_baseIdSaIdEE11_M_allocateEm:
.LFB2553:
	.cfi_startproc
	pushq	%rbp
	.cfi_def_cfa_offset 16
	.cfi_offset 6, -16
	movq	%rsp, %rbp
	.cfi_def_cfa_register 6
	subq	$16, %rsp
	movq	%rdi, -8(%rbp)
	movq	%rsi, -16(%rbp)
	cmpq	$0, -16(%rbp)
	je	.L70
	movq	-8(%rbp), %rax
	movq	-16(%rbp), %rdx
	movq	%rdx, %rsi
	movq	%rax, %rdi
	call	_ZNSt16allocator_traitsISaIdEE8allocateERS0_m
	jmp	.L72
.L70:
	movl	$0, %eax
.L72:
	leave
	.cfi_def_cfa 7, 8
	ret
	.cfi_endproc
.LFE2553:
	.size	_ZNSt12_Vector_baseIdSaIdEE11_M_allocateEm, .-_ZNSt12_Vector_baseIdSaIdEE11_M_allocateEm
	.section	.text._ZNSt16allocator_traitsISaIdEE10deallocateERS0_Pdm,"axG",@progbits,_ZNSt16allocator_traitsISaIdEE10deallocateERS0_Pdm,comdat
	.weak	_ZNSt16allocator_traitsISaIdEE10deallocateERS0_Pdm
	.type	_ZNSt16allocator_traitsISaIdEE10deallocateERS0_Pdm, @function
_ZNSt16allocator_traitsISaIdEE10deallocateERS0_Pdm:
.LFB2554:
	.cfi_startproc
	pushq	%rbp
	.cfi_def_cfa_offset 16
	.cfi_offset 6, -16
	movq	%rsp, %rbp
	.cfi_def_cfa_register 6
	subq	$32, %rsp
	movq	%rdi, -8(%rbp)
	movq	%rsi, -16(%rbp)
	movq	%rdx, -24(%rbp)
	movq	-24(%rbp), %rdx
	movq	-16(%rbp), %rcx
	movq	-8(%rbp), %rax
	movq	%rcx, %rsi
	movq	%rax, %rdi
	call	_ZN9__gnu_cxx13new_allocatorIdE10deallocateEPdm
	nop
	leave
	.cfi_def_cfa 7, 8
	ret
	.cfi_endproc
.LFE2554:
	.size	_ZNSt16allocator_traitsISaIdEE10deallocateERS0_Pdm, .-_ZNSt16allocator_traitsISaIdEE10deallocateERS0_Pdm
	.section	.text._ZSt20uninitialized_fill_nIPdmdET_S1_T0_RKT1_,"axG",@progbits,_ZSt20uninitialized_fill_nIPdmdET_S1_T0_RKT1_,comdat
	.weak	_ZSt20uninitialized_fill_nIPdmdET_S1_T0_RKT1_
	.type	_ZSt20uninitialized_fill_nIPdmdET_S1_T0_RKT1_, @function
_ZSt20uninitialized_fill_nIPdmdET_S1_T0_RKT1_:
.LFB2555:
	.cfi_startproc
	pushq	%rbp
	.cfi_def_cfa_offset 16
	.cfi_offset 6, -16
	movq	%rsp, %rbp
	.cfi_def_cfa_register 6
	subq	$48, %rsp
	movq	%rdi, -24(%rbp)
	movq	%rsi, -32(%rbp)
	movq	%rdx, -40(%rbp)
	movb	$1, -1(%rbp)
	movq	-40(%rbp), %rdx
	movq	-32(%rbp), %rcx
	movq	-24(%rbp), %rax
	movq	%rcx, %rsi
	movq	%rax, %rdi
	call	_ZNSt22__uninitialized_fill_nILb1EE15__uninit_fill_nIPdmdEET_S3_T0_RKT1_
	leave
	.cfi_def_cfa 7, 8
	ret
	.cfi_endproc
.LFE2555:
	.size	_ZSt20uninitialized_fill_nIPdmdET_S1_T0_RKT1_, .-_ZSt20uninitialized_fill_nIPdmdET_S1_T0_RKT1_
	.section	.text._ZNSt12_Destroy_auxILb1EE9__destroyIPdEEvT_S3_,"axG",@progbits,_ZNSt12_Destroy_auxILb1EE9__destroyIPdEEvT_S3_,comdat
	.weak	_ZNSt12_Destroy_auxILb1EE9__destroyIPdEEvT_S3_
	.type	_ZNSt12_Destroy_auxILb1EE9__destroyIPdEEvT_S3_, @function
_ZNSt12_Destroy_auxILb1EE9__destroyIPdEEvT_S3_:
.LFB2556:
	.cfi_startproc
	pushq	%rbp
	.cfi_def_cfa_offset 16
	.cfi_offset 6, -16
	movq	%rsp, %rbp
	.cfi_def_cfa_register 6
	movq	%rdi, -8(%rbp)
	movq	%rsi, -16(%rbp)
	nop
	popq	%rbp
	.cfi_def_cfa 7, 8
	ret
	.cfi_endproc
.LFE2556:
	.size	_ZNSt12_Destroy_auxILb1EE9__destroyIPdEEvT_S3_, .-_ZNSt12_Destroy_auxILb1EE9__destroyIPdEEvT_S3_
	.section	.text._ZNK9__gnu_cxx13new_allocatorIdE8max_sizeEv,"axG",@progbits,_ZNK9__gnu_cxx13new_allocatorIdE8max_sizeEv,comdat
	.align 2
	.weak	_ZNK9__gnu_cxx13new_allocatorIdE8max_sizeEv
	.type	_ZNK9__gnu_cxx13new_allocatorIdE8max_sizeEv, @function
_ZNK9__gnu_cxx13new_allocatorIdE8max_sizeEv:
.LFB2586:
	.cfi_startproc
	pushq	%rbp
	.cfi_def_cfa_offset 16
	.cfi_offset 6, -16
	movq	%rsp, %rbp
	.cfi_def_cfa_register 6
	movq	%rdi, -8(%rbp)
	movabsq	$1152921504606846975, %rax
	popq	%rbp
	.cfi_def_cfa 7, 8
	ret
	.cfi_endproc
.LFE2586:
	.size	_ZNK9__gnu_cxx13new_allocatorIdE8max_sizeEv, .-_ZNK9__gnu_cxx13new_allocatorIdE8max_sizeEv
	.section	.text._ZNSt16allocator_traitsISaIdEE8allocateERS0_m,"axG",@progbits,_ZNSt16allocator_traitsISaIdEE8allocateERS0_m,comdat
	.weak	_ZNSt16allocator_traitsISaIdEE8allocateERS0_m
	.type	_ZNSt16allocator_traitsISaIdEE8allocateERS0_m, @function
_ZNSt16allocator_traitsISaIdEE8allocateERS0_m:
.LFB2587:
	.cfi_startproc
	pushq	%rbp
	.cfi_def_cfa_offset 16
	.cfi_offset 6, -16
	movq	%rsp, %rbp
	.cfi_def_cfa_register 6
	subq	$16, %rsp
	movq	%rdi, -8(%rbp)
	movq	%rsi, -16(%rbp)
	movq	-16(%rbp), %rcx
	movq	-8(%rbp), %rax
	movl	$0, %edx
	movq	%rcx, %rsi
	movq	%rax, %rdi
	call	_ZN9__gnu_cxx13new_allocatorIdE8allocateEmPKv
	leave
	.cfi_def_cfa 7, 8
	ret
	.cfi_endproc
.LFE2587:
	.size	_ZNSt16allocator_traitsISaIdEE8allocateERS0_m, .-_ZNSt16allocator_traitsISaIdEE8allocateERS0_m
	.section	.text._ZN9__gnu_cxx13new_allocatorIdE10deallocateEPdm,"axG",@progbits,_ZN9__gnu_cxx13new_allocatorIdE10deallocateEPdm,comdat
	.align 2
	.weak	_ZN9__gnu_cxx13new_allocatorIdE10deallocateEPdm
	.type	_ZN9__gnu_cxx13new_allocatorIdE10deallocateEPdm, @function
_ZN9__gnu_cxx13new_allocatorIdE10deallocateEPdm:
.LFB2588:
	.cfi_startproc
	pushq	%rbp
	.cfi_def_cfa_offset 16
	.cfi_offset 6, -16
	movq	%rsp, %rbp
	.cfi_def_cfa_register 6
	subq	$32, %rsp
	movq	%rdi, -8(%rbp)
	movq	%rsi, -16(%rbp)
	movq	%rdx, -24(%rbp)
	movq	-16(%rbp), %rax
	movq	%rax, %rdi
	call	_ZdlPv
	nop
	leave
	.cfi_def_cfa 7, 8
	ret
	.cfi_endproc
.LFE2588:
	.size	_ZN9__gnu_cxx13new_allocatorIdE10deallocateEPdm, .-_ZN9__gnu_cxx13new_allocatorIdE10deallocateEPdm
	.section	.text._ZNSt22__uninitialized_fill_nILb1EE15__uninit_fill_nIPdmdEET_S3_T0_RKT1_,"axG",@progbits,_ZNSt22__uninitialized_fill_nILb1EE15__uninit_fill_nIPdmdEET_S3_T0_RKT1_,comdat
	.weak	_ZNSt22__uninitialized_fill_nILb1EE15__uninit_fill_nIPdmdEET_S3_T0_RKT1_
	.type	_ZNSt22__uninitialized_fill_nILb1EE15__uninit_fill_nIPdmdEET_S3_T0_RKT1_, @function
_ZNSt22__uninitialized_fill_nILb1EE15__uninit_fill_nIPdmdEET_S3_T0_RKT1_:
.LFB2589:
	.cfi_startproc
	pushq	%rbp
	.cfi_def_cfa_offset 16
	.cfi_offset 6, -16
	movq	%rsp, %rbp
	.cfi_def_cfa_register 6
	subq	$32, %rsp
	movq	%rdi, -8(%rbp)
	movq	%rsi, -16(%rbp)
	movq	%rdx, -24(%rbp)
	movq	-24(%rbp), %rdx
	movq	-16(%rbp), %rcx
	movq	-8(%rbp), %rax
	movq	%rcx, %rsi
	movq	%rax, %rdi
	call	_ZSt6fill_nIPdmdET_S1_T0_RKT1_
	leave
	.cfi_def_cfa 7, 8
	ret
	.cfi_endproc
.LFE2589:
	.size	_ZNSt22__uninitialized_fill_nILb1EE15__uninit_fill_nIPdmdEET_S3_T0_RKT1_, .-_ZNSt22__uninitialized_fill_nILb1EE15__uninit_fill_nIPdmdEET_S3_T0_RKT1_
	.section	.text._ZN9__gnu_cxx13new_allocatorIdE8allocateEmPKv,"axG",@progbits,_ZN9__gnu_cxx13new_allocatorIdE8allocateEmPKv,comdat
	.align 2
	.weak	_ZN9__gnu_cxx13new_allocatorIdE8allocateEmPKv
	.type	_ZN9__gnu_cxx13new_allocatorIdE8allocateEmPKv, @function
_ZN9__gnu_cxx13new_allocatorIdE8allocateEmPKv:
.LFB2617:
	.cfi_startproc
	pushq	%rbp
	.cfi_def_cfa_offset 16
	.cfi_offset 6, -16
	movq	%rsp, %rbp
	.cfi_def_cfa_register 6
	subq	$32, %rsp
	movq	%rdi, -8(%rbp)
	movq	%rsi, -16(%rbp)
	movq	%rdx, -24(%rbp)
	movq	-8(%rbp), %rax
	movq	%rax, %rdi
	call	_ZNK9__gnu_cxx13new_allocatorIdE8max_sizeEv
	cmpq	%rax, -16(%rbp)
	seta	%al
	testb	%al, %al
	je	.L85
	call	_ZSt17__throw_bad_allocv
.L85:
	movq	-16(%rbp), %rax
	salq	$3, %rax
	movq	%rax, %rdi
	call	_Znwm
	leave
	.cfi_def_cfa 7, 8
	ret
	.cfi_endproc
.LFE2617:
	.size	_ZN9__gnu_cxx13new_allocatorIdE8allocateEmPKv, .-_ZN9__gnu_cxx13new_allocatorIdE8allocateEmPKv
	.section	.text._ZSt6fill_nIPdmdET_S1_T0_RKT1_,"axG",@progbits,_ZSt6fill_nIPdmdET_S1_T0_RKT1_,comdat
	.weak	_ZSt6fill_nIPdmdET_S1_T0_RKT1_
	.type	_ZSt6fill_nIPdmdET_S1_T0_RKT1_, @function
_ZSt6fill_nIPdmdET_S1_T0_RKT1_:
.LFB2618:
	.cfi_startproc
	pushq	%rbp
	.cfi_def_cfa_offset 16
	.cfi_offset 6, -16
	movq	%rsp, %rbp
	.cfi_def_cfa_register 6
	subq	$32, %rsp
	movq	%rdi, -8(%rbp)
	movq	%rsi, -16(%rbp)
	movq	%rdx, -24(%rbp)
	movq	-8(%rbp), %rax
	movq	%rax, %rdi
	call	_ZSt12__niter_baseIPdET_S1_
	movq	%rax, %rcx
	movq	-24(%rbp), %rdx
	movq	-16(%rbp), %rax
	movq	%rax, %rsi
	movq	%rcx, %rdi
	call	_ZSt10__fill_n_aIPdmdEN9__gnu_cxx11__enable_ifIXsrSt11__is_scalarIT1_E7__valueET_E6__typeES6_T0_RKS4_
	movq	%rax, %rdx
	leaq	-8(%rbp), %rax
	movq	%rdx, %rsi
	movq	%rax, %rdi
	call	_ZSt12__niter_wrapIPdET_RKS1_S1_
	leave
	.cfi_def_cfa 7, 8
	ret
	.cfi_endproc
.LFE2618:
	.size	_ZSt6fill_nIPdmdET_S1_T0_RKT1_, .-_ZSt6fill_nIPdmdET_S1_T0_RKT1_
	.section	.text._ZSt12__niter_baseIPdET_S1_,"axG",@progbits,_ZSt12__niter_baseIPdET_S1_,comdat
	.weak	_ZSt12__niter_baseIPdET_S1_
	.type	_ZSt12__niter_baseIPdET_S1_, @function
_ZSt12__niter_baseIPdET_S1_:
.LFB2629:
	.cfi_startproc
	pushq	%rbp
	.cfi_def_cfa_offset 16
	.cfi_offset 6, -16
	movq	%rsp, %rbp
	.cfi_def_cfa_register 6
	movq	%rdi, -8(%rbp)
	movq	-8(%rbp), %rax
	popq	%rbp
	.cfi_def_cfa 7, 8
	ret
	.cfi_endproc
.LFE2629:
	.size	_ZSt12__niter_baseIPdET_S1_, .-_ZSt12__niter_baseIPdET_S1_
	.section	.text._ZSt10__fill_n_aIPdmdEN9__gnu_cxx11__enable_ifIXsrSt11__is_scalarIT1_E7__valueET_E6__typeES6_T0_RKS4_,"axG",@progbits,_ZSt10__fill_n_aIPdmdEN9__gnu_cxx11__enable_ifIXsrSt11__is_scalarIT1_E7__valueET_E6__typeES6_T0_RKS4_,comdat
	.weak	_ZSt10__fill_n_aIPdmdEN9__gnu_cxx11__enable_ifIXsrSt11__is_scalarIT1_E7__valueET_E6__typeES6_T0_RKS4_
	.type	_ZSt10__fill_n_aIPdmdEN9__gnu_cxx11__enable_ifIXsrSt11__is_scalarIT1_E7__valueET_E6__typeES6_T0_RKS4_, @function
_ZSt10__fill_n_aIPdmdEN9__gnu_cxx11__enable_ifIXsrSt11__is_scalarIT1_E7__valueET_E6__typeES6_T0_RKS4_:
.LFB2630:
	.cfi_startproc
	pushq	%rbp
	.cfi_def_cfa_offset 16
	.cfi_offset 6, -16
	movq	%rsp, %rbp
	.cfi_def_cfa_register 6
	movq	%rdi, -24(%rbp)
	movq	%rsi, -32(%rbp)
	movq	%rdx, -40(%rbp)
	movq	-40(%rbp), %rax
	movsd	(%rax), %xmm0
	movsd	%xmm0, -16(%rbp)
	movq	-32(%rbp), %rax
	movq	%rax, -8(%rbp)
.L93:
	cmpq	$0, -8(%rbp)
	je	.L92
	movq	-24(%rbp), %rax
	movsd	-16(%rbp), %xmm0
	movsd	%xmm0, (%rax)
	subq	$1, -8(%rbp)
	addq	$8, -24(%rbp)
	jmp	.L93
.L92:
	movq	-24(%rbp), %rax
	popq	%rbp
	.cfi_def_cfa 7, 8
	ret
	.cfi_endproc
.LFE2630:
	.size	_ZSt10__fill_n_aIPdmdEN9__gnu_cxx11__enable_ifIXsrSt11__is_scalarIT1_E7__valueET_E6__typeES6_T0_RKS4_, .-_ZSt10__fill_n_aIPdmdEN9__gnu_cxx11__enable_ifIXsrSt11__is_scalarIT1_E7__valueET_E6__typeES6_T0_RKS4_
	.section	.text._ZSt12__niter_wrapIPdET_RKS1_S1_,"axG",@progbits,_ZSt12__niter_wrapIPdET_RKS1_S1_,comdat
	.weak	_ZSt12__niter_wrapIPdET_RKS1_S1_
	.type	_ZSt12__niter_wrapIPdET_RKS1_S1_, @function
_ZSt12__niter_wrapIPdET_RKS1_S1_:
.LFB2631:
	.cfi_startproc
	pushq	%rbp
	.cfi_def_cfa_offset 16
	.cfi_offset 6, -16
	movq	%rsp, %rbp
	.cfi_def_cfa_register 6
	movq	%rdi, -8(%rbp)
	movq	%rsi, -16(%rbp)
	movq	-16(%rbp), %rax
	popq	%rbp
	.cfi_def_cfa 7, 8
	ret
	.cfi_endproc
.LFE2631:
	.size	_ZSt12__niter_wrapIPdET_RKS1_S1_, .-_ZSt12__niter_wrapIPdET_RKS1_S1_
	.text
	.type	_Z41__static_initialization_and_destruction_0ii, @function
_Z41__static_initialization_and_destruction_0ii:
.LFB2634:
	.cfi_startproc
	pushq	%rbp
	.cfi_def_cfa_offset 16
	.cfi_offset 6, -16
	movq	%rsp, %rbp
	.cfi_def_cfa_register 6
	subq	$16, %rsp
	movl	%edi, -4(%rbp)
	movl	%esi, -8(%rbp)
	cmpl	$1, -4(%rbp)
	jne	.L99
	cmpl	$65535, -8(%rbp)
	jne	.L99
	movl	$_ZStL8__ioinit, %edi
	call	_ZNSt8ios_base4InitC1Ev
	movl	$__dso_handle, %edx
	movl	$_ZStL8__ioinit, %esi
	movl	$_ZNSt8ios_base4InitD1Ev, %edi
	call	__cxa_atexit
.L99:
	nop
	leave
	.cfi_def_cfa 7, 8
	ret
	.cfi_endproc
.LFE2634:
	.size	_Z41__static_initialization_and_destruction_0ii, .-_Z41__static_initialization_and_destruction_0ii
	.type	_GLOBAL__sub_I__Z9correlateiiPKfPf, @function
_GLOBAL__sub_I__Z9correlateiiPKfPf:
.LFB2635:
	.cfi_startproc
	pushq	%rbp
	.cfi_def_cfa_offset 16
	.cfi_offset 6, -16
	movq	%rsp, %rbp
	.cfi_def_cfa_register 6
	movl	$65535, %esi
	movl	$1, %edi
	call	_Z41__static_initialization_and_destruction_0ii
	popq	%rbp
	.cfi_def_cfa 7, 8
	ret
	.cfi_endproc
.LFE2635:
	.size	_GLOBAL__sub_I__Z9correlateiiPKfPf, .-_GLOBAL__sub_I__Z9correlateiiPKfPf
	.section	.init_array,"aw"
	.align 8
	.quad	_GLOBAL__sub_I__Z9correlateiiPKfPf
	.hidden	__dso_handle
	.ident	"GCC: (Spack GCC) 9.3.0"
	.section	.note.GNU-stack,"",@progbits
